; ModuleID = '46/2624.c'
source_filename = "46/2624.c"
target datalayout = "e-m:e-p270:32:32-p271:32:32-p272:64:64-i64:64-f80:128-n8:16:32:64-S128"
target triple = "x86_64-pc-linux-gnu"

@.str = private unnamed_addr constant [5 x i8] c"%d%d\00", align 1
@.str.1 = private unnamed_addr constant [3 x i8] c"%d\00", align 1
@.str.2 = private unnamed_addr constant [4 x i8] c"%d\0A\00", align 1

; Function Attrs: noinline nounwind uwtable
define dso_local i32 @main() #0 {
  %1 = alloca i32, align 4
  %2 = alloca i32, align 4
  %3 = alloca i32, align 4
  %4 = alloca i32, align 4
  %5 = alloca i32, align 4
  %6 = alloca i32, align 4
  %7 = alloca i32, align 4
  %8 = alloca [110 x [110 x i32]], align 16
  %9 = alloca [110 x [110 x i32]], align 16
  store i32 0, i32* %1, align 4
  store i32 1, i32* %6, align 4
  store i32 0, i32* %7, align 4
  %10 = getelementptr inbounds [110 x [110 x i32]], [110 x [110 x i32]]* %9, i64 0, i64 0
  %11 = bitcast [110 x i32]* %10 to i8*
  call void @llvm.memset.p0i8.i64(i8* align 16 %11, i8 0, i64 48400, i1 false)
  %12 = call i32 (i8*, ...) @__isoc99_scanf(i8* getelementptr inbounds ([5 x i8], [5 x i8]* @.str, i64 0, i64 0), i32* %2, i32* %3)
  store i32 1, i32* %4, align 4
  br label %13

13:                                               ; preds = %34, %0
  %14 = load i32, i32* %4, align 4
  %15 = load i32, i32* %2, align 4
  %16 = icmp sle i32 %14, %15
  br i1 %16, label %17, label %37

17:                                               ; preds = %13
  store i32 1, i32* %5, align 4
  br label %18

18:                                               ; preds = %30, %17
  %19 = load i32, i32* %5, align 4
  %20 = load i32, i32* %3, align 4
  %21 = icmp sle i32 %19, %20
  br i1 %21, label %22, label %33

22:                                               ; preds = %18
  %23 = load i32, i32* %4, align 4
  %24 = sext i32 %23 to i64
  %25 = getelementptr inbounds [110 x [110 x i32]], [110 x [110 x i32]]* %8, i64 0, i64 %24
  %26 = load i32, i32* %5, align 4
  %27 = sext i32 %26 to i64
  %28 = getelementptr inbounds [110 x i32], [110 x i32]* %25, i64 0, i64 %27
  %29 = call i32 (i8*, ...) @__isoc99_scanf(i8* getelementptr inbounds ([3 x i8], [3 x i8]* @.str.1, i64 0, i64 0), i32* %28)
  br label %30

30:                                               ; preds = %22
  %31 = load i32, i32* %5, align 4
  %32 = add nsw i32 %31, 1
  store i32 %32, i32* %5, align 4
  br label %18

33:                                               ; preds = %18
  br label %34

34:                                               ; preds = %33
  %35 = load i32, i32* %4, align 4
  %36 = add nsw i32 %35, 1
  store i32 %36, i32* %4, align 4
  br label %13

37:                                               ; preds = %13
  store i32 1, i32* %4, align 4
  store i32 1, i32* %5, align 4
  br label %38

38:                                               ; preds = %157, %150, %127, %104, %79, %37
  %39 = load i32, i32* %4, align 4
  %40 = sext i32 %39 to i64
  %41 = getelementptr inbounds [110 x [110 x i32]], [110 x [110 x i32]]* %8, i64 0, i64 %40
  %42 = load i32, i32* %5, align 4
  %43 = sext i32 %42 to i64
  %44 = getelementptr inbounds [110 x i32], [110 x i32]* %41, i64 0, i64 %43
  %45 = load i32, i32* %44, align 4
  %46 = call i32 (i8*, ...) @printf(i8* getelementptr inbounds ([4 x i8], [4 x i8]* @.str.2, i64 0, i64 0), i32 %45)
  %47 = load i32, i32* %7, align 4
  %48 = add nsw i32 %47, 1
  store i32 %48, i32* %7, align 4
  %49 = load i32, i32* %7, align 4
  %50 = load i32, i32* %2, align 4
  %51 = load i32, i32* %3, align 4
  %52 = mul nsw i32 %50, %51
  %53 = icmp sge i32 %49, %52
  br i1 %53, label %54, label %55

54:                                               ; preds = %38
  br label %158

55:                                               ; preds = %38
  %56 = load i32, i32* %4, align 4
  %57 = sext i32 %56 to i64
  %58 = getelementptr inbounds [110 x [110 x i32]], [110 x [110 x i32]]* %9, i64 0, i64 %57
  %59 = load i32, i32* %5, align 4
  %60 = sext i32 %59 to i64
  %61 = getelementptr inbounds [110 x i32], [110 x i32]* %58, i64 0, i64 %60
  store i32 1, i32* %61, align 4
  %62 = load i32, i32* %6, align 4
  %63 = icmp eq i32 %62, 1
  br i1 %63, label %64, label %86

64:                                               ; preds = %55
  %65 = load i32, i32* %5, align 4
  %66 = add nsw i32 %65, 1
  %67 = load i32, i32* %3, align 4
  %68 = icmp sgt i32 %66, %67
  br i1 %68, label %79, label %69

69:                                               ; preds = %64
  %70 = load i32, i32* %4, align 4
  %71 = sext i32 %70 to i64
  %72 = getelementptr inbounds [110 x [110 x i32]], [110 x [110 x i32]]* %9, i64 0, i64 %71
  %73 = load i32, i32* %5, align 4
  %74 = add nsw i32 %73, 1
  %75 = sext i32 %74 to i64
  %76 = getelementptr inbounds [110 x i32], [110 x i32]* %72, i64 0, i64 %75
  %77 = load i32, i32* %76, align 4
  %78 = icmp ne i32 %77, 0
  br i1 %78, label %79, label %82

79:                                               ; preds = %69, %64
  store i32 2, i32* %6, align 4
  %80 = load i32, i32* %4, align 4
  %81 = add nsw i32 %80, 1
  store i32 %81, i32* %4, align 4
  br label %38

82:                                               ; preds = %69
  %83 = load i32, i32* %5, align 4
  %84 = add nsw i32 %83, 1
  store i32 %84, i32* %5, align 4
  br label %85

85:                                               ; preds = %82
  br label %86

86:                                               ; preds = %85, %55
  %87 = load i32, i32* %6, align 4
  %88 = icmp eq i32 %87, 2
  br i1 %88, label %89, label %111

89:                                               ; preds = %86
  %90 = load i32, i32* %4, align 4
  %91 = add nsw i32 %90, 1
  %92 = load i32, i32* %2, align 4
  %93 = icmp sgt i32 %91, %92
  br i1 %93, label %104, label %94

94:                                               ; preds = %89
  %95 = load i32, i32* %4, align 4
  %96 = add nsw i32 %95, 1
  %97 = sext i32 %96 to i64
  %98 = getelementptr inbounds [110 x [110 x i32]], [110 x [110 x i32]]* %9, i64 0, i64 %97
  %99 = load i32, i32* %5, align 4
  %100 = sext i32 %99 to i64
  %101 = getelementptr inbounds [110 x i32], [110 x i32]* %98, i64 0, i64 %100
  %102 = load i32, i32* %101, align 4
  %103 = icmp ne i32 %102, 0
  br i1 %103, label %104, label %107

104:                                              ; preds = %94, %89
  store i32 3, i32* %6, align 4
  %105 = load i32, i32* %5, align 4
  %106 = add nsw i32 %105, -1
  store i32 %106, i32* %5, align 4
  br label %38

107:                                              ; preds = %94
  %108 = load i32, i32* %4, align 4
  %109 = add nsw i32 %108, 1
  store i32 %109, i32* %4, align 4
  br label %110

110:                                              ; preds = %107
  br label %111

111:                                              ; preds = %110, %86
  %112 = load i32, i32* %6, align 4
  %113 = icmp eq i32 %112, 3
  br i1 %113, label %114, label %134

114:                                              ; preds = %111
  %115 = load i32, i32* %5, align 4
  %116 = icmp slt i32 %115, 2
  br i1 %116, label %127, label %117

117:                                              ; preds = %114
  %118 = load i32, i32* %4, align 4
  %119 = sext i32 %118 to i64
  %120 = getelementptr inbounds [110 x [110 x i32]], [110 x [110 x i32]]* %9, i64 0, i64 %119
  %121 = load i32, i32* %5, align 4
  %122 = sub nsw i32 %121, 1
  %123 = sext i32 %122 to i64
  %124 = getelementptr inbounds [110 x i32], [110 x i32]* %120, i64 0, i64 %123
  %125 = load i32, i32* %124, align 4
  %126 = icmp ne i32 %125, 0
  br i1 %126, label %127, label %130

127:                                              ; preds = %117, %114
  store i32 4, i32* %6, align 4
  %128 = load i32, i32* %4, align 4
  %129 = add nsw i32 %128, -1
  store i32 %129, i32* %4, align 4
  br label %38

130:                                              ; preds = %117
  %131 = load i32, i32* %5, align 4
  %132 = add nsw i32 %131, -1
  store i32 %132, i32* %5, align 4
  br label %133

133:                                              ; preds = %130
  br label %134

134:                                              ; preds = %133, %111
  %135 = load i32, i32* %6, align 4
  %136 = icmp eq i32 %135, 4
  br i1 %136, label %137, label %157

137:                                              ; preds = %134
  %138 = load i32, i32* %4, align 4
  %139 = icmp slt i32 %138, 1
  br i1 %139, label %150, label %140

140:                                              ; preds = %137
  %141 = load i32, i32* %4, align 4
  %142 = sub nsw i32 %141, 1
  %143 = sext i32 %142 to i64
  %144 = getelementptr inbounds [110 x [110 x i32]], [110 x [110 x i32]]* %9, i64 0, i64 %143
  %145 = load i32, i32* %5, align 4
  %146 = sext i32 %145 to i64
  %147 = getelementptr inbounds [110 x i32], [110 x i32]* %144, i64 0, i64 %146
  %148 = load i32, i32* %147, align 4
  %149 = icmp ne i32 %148, 0
  br i1 %149, label %150, label %153

150:                                              ; preds = %140, %137
  store i32 1, i32* %6, align 4
  %151 = load i32, i32* %5, align 4
  %152 = add nsw i32 %151, 1
  store i32 %152, i32* %5, align 4
  br label %38

153:                                              ; preds = %140
  %154 = load i32, i32* %4, align 4
  %155 = add nsw i32 %154, -1
  store i32 %155, i32* %4, align 4
  br label %156

156:                                              ; preds = %153
  br label %157

157:                                              ; preds = %156, %134
  br label %38

158:                                              ; preds = %54
  %159 = call i32 (i8*, ...) @__isoc99_scanf(i8* getelementptr inbounds ([3 x i8], [3 x i8]* @.str.1, i64 0, i64 0), i32* %4)
  ret i32 0
}

; Function Attrs: argmemonly nounwind willreturn
declare void @llvm.memset.p0i8.i64(i8* nocapture writeonly, i8, i64, i1 immarg) #1

declare dso_local i32 @__isoc99_scanf(i8*, ...) #2

declare dso_local i32 @printf(i8*, ...) #2


!llvm.module.flags = !{!0}
!llvm.ident = !{!1}

!0 = !{i32 1, !"wchar_size", i32 4}
!1 = !{!"clang version 10.0.0-4ubuntu1 "}
